
out/cms_sw.elf:     file format elf32-littlearm


Disassembly of section .text:

08000188 <main>:
#include "per.h"


void main(void)
{
	FPU->FPCCR.bits.ASPEN = 1u;
 8000188:	4a07      	ldr	r2, [pc, #28]	; (80001a8 <_estartup+0x20>)
 800018a:	f8d2 31ac 	ldr.w	r3, [r2, #428]	; 0x1ac
 800018e:	f043 0301 	orr.w	r3, r3, #1
 8000192:	f8c2 31ac 	str.w	r3, [r2, #428]	; 0x1ac
	FPU->FPCAR.bits.reserved1 = 1u;
 8000196:	f8d2 31b0 	ldr.w	r3, [r2, #432]	; 0x1b0
 800019a:	f023 4360 	bic.w	r3, r3, #3758096384	; 0xe0000000
 800019e:	f043 5300 	orr.w	r3, r3, #536870912	; 0x20000000
 80001a2:	f8c2 31b0 	str.w	r3, [r2, #432]	; 0x1b0

	while(1);
 80001a6:	e7fe      	b.n	80001a6 <main+0x1e>
 80001a8:	e000ed88 	.word	0xe000ed88

080001ac <usb_init>:
#include "per.h"
#include "usb.h"

void usb_init(void)
{
 80001ac:	4770      	bx	lr
 80001ae:	bf00      	nop

080001b0 <Reset_Handler>:
 80001b0:	4a0e      	ldr	r2, [pc, #56]	; (80001ec <Reset_Handler+0x3c>)
 80001b2:	490f      	ldr	r1, [pc, #60]	; (80001f0 <Reset_Handler+0x40>)
 80001b4:	4b0f      	ldr	r3, [pc, #60]	; (80001f4 <Reset_Handler+0x44>)
 80001b6:	f000 f82d 	bl	8000214 <wordCopy>
 80001ba:	4a0f      	ldr	r2, [pc, #60]	; (80001f8 <Reset_Handler+0x48>)
 80001bc:	490f      	ldr	r1, [pc, #60]	; (80001fc <Reset_Handler+0x4c>)
 80001be:	4b10      	ldr	r3, [pc, #64]	; (8000200 <Reset_Handler+0x50>)
 80001c0:	f000 f828 	bl	8000214 <wordCopy>
 80001c4:	4a0f      	ldr	r2, [pc, #60]	; (8000204 <Reset_Handler+0x54>)
 80001c6:	4910      	ldr	r1, [pc, #64]	; (8000208 <Reset_Handler+0x58>)
 80001c8:	4b10      	ldr	r3, [pc, #64]	; (800020c <Reset_Handler+0x5c>)
 80001ca:	f000 f82d 	bl	8000228 <wordSet>
 80001ce:	4a10      	ldr	r2, [pc, #64]	; (8000210 <Reset_Handler+0x60>)
 80001d0:	6813      	ldr	r3, [r2, #0]
 80001d2:	f443 0370 	orr.w	r3, r3, #15728640	; 0xf00000
 80001d6:	6013      	str	r3, [r2, #0]
 80001d8:	f3bf 8f4f 	dsb	sy
 80001dc:	f3bf 8f6f 	isb	sy
 80001e0:	f7ff ffd2 	bl	8000188 <main>
 80001e4:	bf00      	nop
 80001e6:	f000 b829 	b.w	800023c <ADC1_2_IRQHandler>
 80001ea:	0000      	.short	0x0000
 80001ec:	08000240 	.word	0x08000240
 80001f0:	10000000 	.word	0x10000000
 80001f4:	00000000 	.word	0x00000000
 80001f8:	08000240 	.word	0x08000240
 80001fc:	20000000 	.word	0x20000000
	...
 8000208:	20000000 	.word	0x20000000
 800020c:	00000000 	.word	0x00000000
 8000210:	e000ed88 	.word	0xe000ed88

08000214 <wordCopy>:
 8000214:	2b00      	cmp	r3, #0
 8000216:	d005      	beq.n	8000224 <wordCopyExit>
 8000218:	f1a3 0304 	sub.w	r3, r3, #4

0800021c <wordCopyLoop>:
 800021c:	58d4      	ldr	r4, [r2, r3]
 800021e:	50cc      	str	r4, [r1, r3]
 8000220:	3b04      	subs	r3, #4
 8000222:	dafb      	bge.n	800021c <wordCopyLoop>

08000224 <wordCopyExit>:
 8000224:	4770      	bx	lr
 8000226:	bf00      	nop

08000228 <wordSet>:
 8000228:	2b00      	cmp	r3, #0
 800022a:	d005      	beq.n	8000238 <wordSetExit>
 800022c:	f1a3 0304 	sub.w	r3, r3, #4
 8000230:	4614      	mov	r4, r2

08000232 <wordSetloop>:
 8000232:	50cc      	str	r4, [r1, r3]
 8000234:	3b04      	subs	r3, #4
 8000236:	dafc      	bge.n	8000232 <wordSetloop>

08000238 <wordSetExit>:
 8000238:	4770      	bx	lr
 800023a:	bf00      	nop

0800023c <ADC1_2_IRQHandler>:
 800023c:	f7ff bffe 	b.w	800023c <ADC1_2_IRQHandler>
